target datalayout = "e-m:e-p270:32:32-p271:32:32-p272:64:64-i64:64-i128:128-f80:128-n8:16:32:64-S128"
target triple = "x86_64-pc-linux-gnu"

%struct.Psr_Man_t_ = type { ptr, ptr, ptr, ptr, ptr, ptr, ptr, %struct.Vec_Str_t_, %struct.Vec_Int_t_, %struct.Vec_Int_t_, %struct.Vec_Int_t_, %struct.Vec_Int_t_, %struct.Vec_Int_t_, i32, [1000 x i8] }
%struct.Vec_Str_t_ = type { i32, i32, ptr }
%struct.Vec_Int_t_ = type { i32, i32, ptr }

@.str.23 = private unnamed_addr constant [34 x i8] c"Unexpectedly reached end-of-file.\00", align 1
@.str.33 = private unnamed_addr constant [3 x i8] c"%s\00", align 1

; Function Attrs: inlinehint nounwind uwtable
define internal i32 @Psr_ManIsChar1(ptr noundef %0, i8 noundef signext %1) #1 {
  %3 = alloca ptr, align 8
  %4 = alloca i8, align 1
  store ptr %0, ptr %3, align 8, !tbaa !3
  store i8 %1, ptr %4, align 1, !tbaa !10
  %5 = load ptr, ptr %3, align 8, !tbaa !3
  %6 = getelementptr inbounds nuw %struct.Psr_Man_t_, ptr %5, i32 0, i32 3
  %7 = load ptr, ptr %6, align 8, !tbaa !13
  %8 = getelementptr inbounds i8, ptr %7, i64 1
  %9 = load i8, ptr %8, align 1, !tbaa !10
  %10 = sext i8 %9 to i32
  %11 = load i8, ptr %4, align 1, !tbaa !10
  %12 = sext i8 %11 to i32
  %13 = icmp eq i32 %10, %12
  %14 = zext i1 %13 to i32
  ret i32 %14
}

; Function Attrs: inlinehint nounwind uwtable
define internal i32 @Psr_ManIsChar(ptr noundef %0, i8 noundef signext %1) #1 {
  %3 = alloca ptr, align 8
  %4 = alloca i8, align 1
  store ptr %0, ptr %3, align 8, !tbaa !3
  store i8 %1, ptr %4, align 1, !tbaa !10
  %5 = load ptr, ptr %3, align 8, !tbaa !3
  %6 = getelementptr inbounds nuw %struct.Psr_Man_t_, ptr %5, i32 0, i32 3
  %7 = load ptr, ptr %6, align 8, !tbaa !13
  %8 = getelementptr inbounds i8, ptr %7, i64 0
  %9 = load i8, ptr %8, align 1, !tbaa !10
  %10 = sext i8 %9 to i32
  %11 = load i8, ptr %4, align 1, !tbaa !10
  %12 = sext i8 %11 to i32
  %13 = icmp eq i32 %10, %12
  %14 = zext i1 %13 to i32
  ret i32 %14
}

; Function Attrs: inlinehint nounwind uwtable
define internal i32 @Psr_ManUtilSkipComments(ptr noundef %0) #1 {
  %2 = alloca i32, align 4
  %3 = alloca ptr, align 8
  store ptr %0, ptr %3, align 8, !tbaa !3
  %4 = load ptr, ptr %3, align 8, !tbaa !3
  %5 = call i32 @Psr_ManIsChar(ptr noundef %4, i8 noundef signext 47)
  %6 = icmp ne i32 %5, 0
  br i1 %6, label %8, label %7

7:                                                ; preds = %1
  store i32 0, ptr %2, align 4
  br label %84

8:                                                ; preds = %1
  %9 = load ptr, ptr %3, align 8, !tbaa !3
  %10 = call i32 @Psr_ManIsChar1(ptr noundef %9, i8 noundef signext 47)
  %11 = icmp ne i32 %10, 0
  br i1 %11, label %12, label %41

12:                                               ; preds = %8
  %13 = load ptr, ptr %3, align 8, !tbaa !3
  %14 = getelementptr inbounds nuw %struct.Psr_Man_t_, ptr %13, i32 0, i32 3
  %15 = load ptr, ptr %14, align 8, !tbaa !13
  %16 = getelementptr inbounds i8, ptr %15, i64 2
  store ptr %16, ptr %14, align 8, !tbaa !13
  br label %17

17:                                               ; preds = %35, %12
  %18 = load ptr, ptr %3, align 8, !tbaa !3
  %19 = getelementptr inbounds nuw %struct.Psr_Man_t_, ptr %18, i32 0, i32 3
  %20 = load ptr, ptr %19, align 8, !tbaa !13
  %21 = load ptr, ptr %3, align 8, !tbaa !3
  %22 = getelementptr inbounds nuw %struct.Psr_Man_t_, ptr %21, i32 0, i32 2
  %23 = load ptr, ptr %22, align 8, !tbaa !37
  %24 = icmp ult ptr %20, %23
  br i1 %24, label %25, label %40

25:                                               ; preds = %17
  %26 = load ptr, ptr %3, align 8, !tbaa !3
  %27 = call i32 @Psr_ManIsChar(ptr noundef %26, i8 noundef signext 10)
  %28 = icmp ne i32 %27, 0
  br i1 %28, label %29, label %34

29:                                               ; preds = %25
  %30 = load ptr, ptr %3, align 8, !tbaa !3
  %31 = getelementptr inbounds nuw %struct.Psr_Man_t_, ptr %30, i32 0, i32 3
  %32 = load ptr, ptr %31, align 8, !tbaa !13
  %33 = getelementptr inbounds nuw i8, ptr %32, i32 1
  store ptr %33, ptr %31, align 8, !tbaa !13
  store i32 1, ptr %2, align 4
  br label %84

34:                                               ; preds = %25
  br label %35

35:                                               ; preds = %34
  %36 = load ptr, ptr %3, align 8, !tbaa !3
  %37 = getelementptr inbounds nuw %struct.Psr_Man_t_, ptr %36, i32 0, i32 3
  %38 = load ptr, ptr %37, align 8, !tbaa !13
  %39 = getelementptr inbounds nuw i8, ptr %38, i32 1
  store ptr %39, ptr %37, align 8, !tbaa !13
  br label %17, !llvm.loop !59

40:                                               ; preds = %17
  br label %83

41:                                               ; preds = %8
  %42 = load ptr, ptr %3, align 8, !tbaa !3
  %43 = call i32 @Psr_ManIsChar1(ptr noundef %42, i8 noundef signext 42)
  %44 = icmp ne i32 %43, 0
  br i1 %44, label %45, label %82

45:                                               ; preds = %41
  %46 = load ptr, ptr %3, align 8, !tbaa !3
  %47 = getelementptr inbounds nuw %struct.Psr_Man_t_, ptr %46, i32 0, i32 3
  %48 = load ptr, ptr %47, align 8, !tbaa !13
  %49 = getelementptr inbounds i8, ptr %48, i64 2
  store ptr %49, ptr %47, align 8, !tbaa !13
  br label %50

50:                                               ; preds = %76, %45
  %51 = load ptr, ptr %3, align 8, !tbaa !3
  %52 = getelementptr inbounds nuw %struct.Psr_Man_t_, ptr %51, i32 0, i32 3
  %53 = load ptr, ptr %52, align 8, !tbaa !13
  %54 = load ptr, ptr %3, align 8, !tbaa !3
  %55 = getelementptr inbounds nuw %struct.Psr_Man_t_, ptr %54, i32 0, i32 2
  %56 = load ptr, ptr %55, align 8, !tbaa !37
  %57 = icmp ult ptr %53, %56
  br i1 %57, label %58, label %81

58:                                               ; preds = %50
  %59 = load ptr, ptr %3, align 8, !tbaa !3
  %60 = call i32 @Psr_ManIsChar(ptr noundef %59, i8 noundef signext 42)
  %61 = icmp ne i32 %60, 0
  br i1 %61, label %62, label %75

62:                                               ; preds = %58
  %63 = load ptr, ptr %3, align 8, !tbaa !3
  %64 = call i32 @Psr_ManIsChar1(ptr noundef %63, i8 noundef signext 47)
  %65 = icmp ne i32 %64, 0
  br i1 %65, label %66, label %75

66:                                               ; preds = %62
  %67 = load ptr, ptr %3, align 8, !tbaa !3
  %68 = getelementptr inbounds nuw %struct.Psr_Man_t_, ptr %67, i32 0, i32 3
  %69 = load ptr, ptr %68, align 8, !tbaa !13
  %70 = getelementptr inbounds nuw i8, ptr %69, i32 1
  store ptr %70, ptr %68, align 8, !tbaa !13
  %71 = load ptr, ptr %3, align 8, !tbaa !3
  %72 = getelementptr inbounds nuw %struct.Psr_Man_t_, ptr %71, i32 0, i32 3
  %73 = load ptr, ptr %72, align 8, !tbaa !13
  %74 = getelementptr inbounds nuw i8, ptr %73, i32 1
  store ptr %74, ptr %72, align 8, !tbaa !13
  store i32 1, ptr %2, align 4
  br label %84

75:                                               ; preds = %62, %58
  br label %76

76:                                               ; preds = %75
  %77 = load ptr, ptr %3, align 8, !tbaa !3
  %78 = getelementptr inbounds nuw %struct.Psr_Man_t_, ptr %77, i32 0, i32 3
  %79 = load ptr, ptr %78, align 8, !tbaa !13
  %80 = getelementptr inbounds nuw i8, ptr %79, i32 1
  store ptr %80, ptr %78, align 8, !tbaa !13
  br label %50, !llvm.loop !60

81:                                               ; preds = %50
  br label %82

82:                                               ; preds = %81, %41
  br label %83

83:                                               ; preds = %82, %40
  store i32 0, ptr %2, align 4
  br label %84

84:                                               ; preds = %83, %66, %29, %7
  %85 = load i32, ptr %2, align 4
  ret i32 %85
}

; Function Attrs: inlinehint nounwind uwtable
define internal i32 @Psr_ManErrorSet(ptr noundef %0, ptr noundef %1, i32 noundef %2) #1 {
  %4 = alloca ptr, align 8
  %5 = alloca ptr, align 8
  %6 = alloca i32, align 4
  store ptr %0, ptr %4, align 8, !tbaa !3
  store ptr %1, ptr %5, align 8, !tbaa !25
  store i32 %2, ptr %6, align 4, !tbaa !11
  %7 = load ptr, ptr %4, align 8, !tbaa !3
  %8 = getelementptr inbounds nuw %struct.Psr_Man_t_, ptr %7, i32 0, i32 14
  %9 = getelementptr inbounds [1000 x i8], ptr %8, i64 0, i64 0
  %10 = load ptr, ptr %5, align 8, !tbaa !25
  %11 = call i32 (ptr, ptr, ...) @sprintf(ptr noundef %9, ptr noundef @.str.33, ptr noundef %10) #11
  %12 = load i32, ptr %6, align 4, !tbaa !11
  ret i32 %12
}

; Function Attrs: inlinehint nounwind uwtable
define internal i32 @Psr_CharIsSpace(i8 noundef signext %0) #1 {
  %2 = alloca i8, align 1
  store i8 %0, ptr %2, align 1, !tbaa !10
  %3 = load i8, ptr %2, align 1, !tbaa !10
  %4 = sext i8 %3 to i32
  %5 = icmp eq i32 %4, 32
  br i1 %5, label %18, label %6

6:                                                ; preds = %1
  %7 = load i8, ptr %2, align 1, !tbaa !10
  %8 = sext i8 %7 to i32
  %9 = icmp eq i32 %8, 9
  br i1 %9, label %18, label %10

10:                                               ; preds = %6
  %11 = load i8, ptr %2, align 1, !tbaa !10
  %12 = sext i8 %11 to i32
  %13 = icmp eq i32 %12, 13
  br i1 %13, label %18, label %14

14:                                               ; preds = %10
  %15 = load i8, ptr %2, align 1, !tbaa !10
  %16 = sext i8 %15 to i32
  %17 = icmp eq i32 %16, 10
  br label %18

18:                                               ; preds = %14, %10, %6, %1
  %19 = phi i1 [ true, %10 ], [ true, %6 ], [ true, %1 ], [ %17, %14 ]
  %20 = zext i1 %19 to i32
  ret i32 %20
}

; Function Attrs: inlinehint nounwind uwtable
define internal i32 @Psr_ManUtilSkipSpaces(ptr noundef %0) #1 {
  %2 = alloca i32, align 4
  %3 = alloca ptr, align 8
  store ptr %0, ptr %3, align 8, !tbaa !3
  br label %4

4:                                                ; preds = %39, %1
  %5 = load ptr, ptr %3, align 8, !tbaa !3
  %6 = getelementptr inbounds nuw %struct.Psr_Man_t_, ptr %5, i32 0, i32 3
  %7 = load ptr, ptr %6, align 8, !tbaa !13
  %8 = load ptr, ptr %3, align 8, !tbaa !3
  %9 = getelementptr inbounds nuw %struct.Psr_Man_t_, ptr %8, i32 0, i32 2
  %10 = load ptr, ptr %9, align 8, !tbaa !37
  %11 = icmp ult ptr %7, %10
  br i1 %11, label %12, label %40

12:                                               ; preds = %4
  br label %13

13:                                               ; preds = %20, %12
  %14 = load ptr, ptr %3, align 8, !tbaa !3
  %15 = getelementptr inbounds nuw %struct.Psr_Man_t_, ptr %14, i32 0, i32 3
  %16 = load ptr, ptr %15, align 8, !tbaa !13
  %17 = load i8, ptr %16, align 1, !tbaa !10
  %18 = call i32 @Psr_CharIsSpace(i8 noundef signext %17)
  %19 = icmp ne i32 %18, 0
  br i1 %19, label %20, label %25

20:                                               ; preds = %13
  %21 = load ptr, ptr %3, align 8, !tbaa !3
  %22 = getelementptr inbounds nuw %struct.Psr_Man_t_, ptr %21, i32 0, i32 3
  %23 = load ptr, ptr %22, align 8, !tbaa !13
  %24 = getelementptr inbounds nuw i8, ptr %23, i32 1
  store ptr %24, ptr %22, align 8, !tbaa !13
  br label %13, !llvm.loop !49

25:                                               ; preds = %13
  %26 = load ptr, ptr %3, align 8, !tbaa !3
  %27 = getelementptr inbounds nuw %struct.Psr_Man_t_, ptr %26, i32 0, i32 3
  %28 = load ptr, ptr %27, align 8, !tbaa !13
  %29 = load i8, ptr %28, align 1, !tbaa !10
  %30 = icmp ne i8 %29, 0
  br i1 %30, label %34, label %31

31:                                               ; preds = %25
  %32 = load ptr, ptr %3, align 8, !tbaa !3
  %33 = call i32 @Psr_ManErrorSet(ptr noundef %32, ptr noundef @.str.23, i32 noundef 1)
  store i32 %33, ptr %2, align 4
  br label %43

34:                                               ; preds = %25
  %35 = load ptr, ptr %3, align 8, !tbaa !3
  %36 = call i32 @Psr_ManUtilSkipComments(ptr noundef %35)
  %37 = icmp ne i32 %36, 0
  br i1 %37, label %39, label %38

38:                                               ; preds = %34
  store i32 0, ptr %2, align 4
  br label %43

39:                                               ; preds = %34
  br label %4, !llvm.loop !50

40:                                               ; preds = %4
  %41 = load ptr, ptr %3, align 8, !tbaa !3
  %42 = call i32 @Psr_ManErrorSet(ptr noundef %41, ptr noundef @.str.23, i32 noundef 1)
  store i32 %42, ptr %2, align 4
  br label %43

43:                                               ; preds = %40, %38, %31
  %44 = load i32, ptr %2, align 4
  ret i32 %44
}