; Function Attrs: inlinehint nofree norecurse nosync nounwind memory(read, argmem: readwrite, inaccessiblemem: none) uwtable
define internal fastcc range(i32 0, 2) i32 @Psr_ManUtilSkipSpaces(ptr noundef captures(none) %0) unnamed_addr #6 {
  %2 = getelementptr inbounds nuw i8, ptr %0, i64 24
  %3 = getelementptr inbounds nuw i8, ptr %0, i64 16
  %4 = load ptr, ptr %3, align 8, !tbaa !21
  %.promoted21 = load ptr, ptr %2, align 8, !tbaa !13
  %5 = icmp ult ptr %.promoted21, %4
  br i1 %5, label %.preheader, label %Psr_ManUtilSkipComments.exit.thread.sink.split

.preheader:                                       ; preds = %1, %.preheader.backedge
  %6 = phi ptr [ %.be, %.preheader.backedge ], [ %.promoted21, %1 ]
  %7 = load i8, ptr %6, align 1, !tbaa !20
  switch i8 %7, label %Psr_ManUtilSkipComments.exit.thread [
    i8 32, label %Psr_CharIsSpace.exit.thread
    i8 13, label %Psr_CharIsSpace.exit.thread
    i8 9, label %Psr_CharIsSpace.exit.thread
    i8 10, label %Psr_CharIsSpace.exit.thread
    i8 0, label %Psr_ManUtilSkipComments.exit.thread.sink.split
    i8 47, label %9
  ]

Psr_CharIsSpace.exit.thread:                      ; preds = %.preheader, %.preheader, %.preheader, %.preheader
  %8 = getelementptr inbounds nuw i8, ptr %6, i64 1
  store ptr %8, ptr %2, align 8, !tbaa !13
  br label %.preheader.backedge

.preheader.backedge:                              ; preds = %Psr_CharIsSpace.exit.thread, %Psr_ManUtilSkipComments.exit
  %.be = phi ptr [ %8, %Psr_CharIsSpace.exit.thread ], [ %.sink.i, %Psr_ManUtilSkipComments.exit ]
  br label %.preheader, !llvm.loop !22

9:                                                ; preds = %.preheader
  %10 = getelementptr i8, ptr %6, i64 1
  %.val25.val.i = load i8, ptr %10, align 1, !tbaa !20
  switch i8 %.val25.val.i, label %Psr_ManUtilSkipComments.exit.thread [
    i8 47, label %11
    i8 42, label %16
  ]

11:                                               ; preds = %9
  %12 = getelementptr inbounds nuw i8, ptr %6, i64 2
  store ptr %12, ptr %2, align 8, !tbaa !13
  %13 = icmp ult ptr %12, %4
  br i1 %13, label %.lr.ph38.i, label %Psr_ManUtilSkipComments.exit.thread

.lr.ph38.i:                                       ; preds = %11, %15
  %storemerge2137.i = phi ptr [ %14, %15 ], [ %12, %11 ]
  %.val23.val.i = load i8, ptr %storemerge2137.i, align 1, !tbaa !20
  %.not29.i = icmp eq i8 %.val23.val.i, 10
  %14 = getelementptr inbounds nuw i8, ptr %storemerge2137.i, i64 1
  br i1 %.not29.i, label %Psr_ManUtilSkipComments.exit, label %15

15:                                               ; preds = %.lr.ph38.i
  store ptr %14, ptr %2, align 8, !tbaa !13
  %exitcond44.not.i = icmp eq ptr %14, %4
  br i1 %exitcond44.not.i, label %Psr_ManUtilSkipComments.exit.thread, label %.lr.ph38.i, !llvm.loop !24

16:                                               ; preds = %9
  %17 = getelementptr inbounds nuw i8, ptr %6, i64 2
  store ptr %17, ptr %2, align 8, !tbaa !13
  %18 = icmp ult ptr %17, %4
  br i1 %18, label %.lr.ph.i, label %Psr_ManUtilSkipComments.exit.thread

.lr.ph.i:                                         ; preds = %16, %23
  %storemerge36.i = phi ptr [ %24, %23 ], [ %17, %16 ]
  %.val.val.i = load i8, ptr %storemerge36.i, align 1, !tbaa !20
  %.not31.i = icmp eq i8 %.val.val.i, 42
  br i1 %.not31.i, label %19, label %23

19:                                               ; preds = %.lr.ph.i
  %20 = getelementptr i8, ptr %storemerge36.i, i64 1
  %.val27.val.i = load i8, ptr %20, align 1, !tbaa !20
  %.not32.i = icmp eq i8 %.val27.val.i, 47
  br i1 %.not32.i, label %21, label %23

21:                                               ; preds = %19
  %22 = getelementptr inbounds nuw i8, ptr %storemerge36.i, i64 2
  br label %Psr_ManUtilSkipComments.exit

23:                                               ; preds = %19, %.lr.ph.i
  %24 = getelementptr inbounds nuw i8, ptr %storemerge36.i, i64 1
  store ptr %24, ptr %2, align 8, !tbaa !13
  %exitcond.not.i = icmp eq ptr %24, %4
  br i1 %exitcond.not.i, label %Psr_ManUtilSkipComments.exit.thread, label %.lr.ph.i, !llvm.loop !25

Psr_ManUtilSkipComments.exit:                     ; preds = %.lr.ph38.i, %21
  %.sink.i = phi ptr [ %22, %21 ], [ %14, %.lr.ph38.i ]
  store ptr %.sink.i, ptr %2, align 8, !tbaa !13
  %25 = icmp ult ptr %.sink.i, %4
  br i1 %25, label %.preheader.backedge, label %Psr_ManUtilSkipComments.exit.thread.sink.split

Psr_ManUtilSkipComments.exit.thread.sink.split:   ; preds = %Psr_ManUtilSkipComments.exit, %.preheader, %1
  %26 = getelementptr inbounds nuw i8, ptr %0, i64 156
  tail call void @llvm.memcpy.p0.p0.i64(ptr noundef nonnull align 1 dereferenceable(34) %26, ptr noundef nonnull align 1 dereferenceable(34) @.str.23, i64 34, i1 false)
  br label %Psr_ManUtilSkipComments.exit.thread

Psr_ManUtilSkipComments.exit.thread:              ; preds = %16, %11, %9, %.preheader, %23, %15, %Psr_ManUtilSkipComments.exit.thread.sink.split
  %.0 = phi i32 [ 1, %Psr_ManUtilSkipComments.exit.thread.sink.split ], [ 0, %15 ], [ 0, %23 ], [ 0, %.preheader ], [ 0, %9 ], [ 0, %11 ], [ 0, %16 ]
  ret i32 %.0
}